target datalayout = "e-m:e-p270:32:32-p271:32:32-p272:64:64-i64:64-i128:128-f80:128-n8:16:32:64-S128"
target triple = "x86_64-pc-linux-gnu"

%struct.cpool = type { %struct.Curl_hash, i64, i64, i64, %struct.curltime, %struct.Curl_llist, ptr, ptr, ptr, ptr, i8 }
%struct.Curl_hash = type { ptr, ptr, ptr, ptr, i64, i64 }
%struct.curltime = type { i64, i32 }
%struct.Curl_llist = type { ptr, ptr, ptr, i64 }
%struct.Curl_easy = type { i32, i64, i64, ptr, %struct.Curl_llist_node, %struct.Curl_llist_node, i32, i32, %struct.Curl_message, %struct.easy_pollset, %struct.Names, ptr, ptr, ptr, %struct.SingleRequest, %struct.UserDefined, ptr, ptr, %struct.Progress, %struct.UrlState, ptr, %struct.PureInfo, %struct.curl_tlssessioninfo }
%struct.Curl_llist_node = type { ptr, ptr, ptr, ptr }
%struct.Curl_message = type { %struct.Curl_llist_node, %struct.CURLMsg }
%struct.CURLMsg = type { i32, ptr, %union.anon }
%union.anon = type { ptr }
%struct.easy_pollset = type { [5 x i32], i32, [5 x i8] }
%struct.Names = type { ptr, i32 }
%struct.SingleRequest = type <{ i64, i64, i64, i64, %struct.curltime, i32, i32, i32, i32, i64, i32, i32, i32, i32, ptr, ptr, %struct.bufq, i64, i64, ptr, ptr, %union.anon.0, ptr, i8, i32, [3 x i8] }>
%struct.bufq = type { ptr, ptr, ptr, ptr, i64, i64, i64, i32 }
%union.anon.0 = type { ptr }
%struct.UserDefined = type <{ ptr, ptr, ptr, ptr, ptr, ptr, i16, [6 x i8], i64, i64, i64, ptr, ptr, i64, i16, i16, [4 x i8], ptr, ptr, ptr, ptr, ptr, ptr, ptr, ptr, ptr, ptr, ptr, ptr, ptr, ptr, ptr, ptr, ptr, ptr, ptr, ptr, ptr, ptr, ptr, i32, i32, i32, i32, i32, [4 x i8], i64, i64, i64, i64, i64, i64, i64, i64, ptr, ptr, %struct.curl_mimepart, ptr, ptr, i64, i8, i8, i8, [5 x i8], %struct.ssl_config_data, %struct.ssl_config_data, ptr, i16, i8, i8, [4 x i8], %struct.ssl_general_config, i32, i32, i32, [4 x i8], ptr, ptr, i8, [7 x i8], i64, i8, i8, i8, i8, i32, ptr, ptr, ptr, i8, i8, [2 x i8], i32, [63 x ptr], [8 x ptr], i32, i32, i32, [4 x i8], ptr, ptr, ptr, ptr, ptr, i8, [3 x i8], i32, i32, i32, i64, %struct.Curl_data_priority, ptr, ptr, i64, ptr, i64, ptr, ptr, ptr, i8, [3 x i8], i32, i8, i8, i64, [6 x i8] }>
%struct.curl_mimepart = type { ptr, ptr, i32, i32, ptr, ptr, ptr, ptr, ptr, ptr, ptr, ptr, ptr, ptr, ptr, i64, %struct.mime_state, ptr, %struct.mime_encoder_state, i64 }
%struct.mime_state = type { i32, ptr, i64 }
%struct.mime_encoder_state = type { i64, i64, i64, [256 x i8] }
%struct.ssl_config_data = type { %struct.ssl_primary_config, i64, ptr, ptr, ptr, ptr, ptr, ptr, ptr, i16 }
%struct.ssl_primary_config = type { ptr, ptr, ptr, ptr, ptr, ptr, ptr, ptr, ptr, ptr, ptr, ptr, i8, i32, i8, i8 }
%struct.ssl_general_config = type { i64, i32 }
%struct.Curl_data_priority = type { ptr, ptr, i32, i8 }
%struct.Progress = type { i64, %struct.pgrs_dir, %struct.pgrs_dir, i64, i64, i32, i32, i64, i64, i64, i64, i64, i64, i64, i64, i64, %struct.curltime, %struct.curltime, %struct.curltime, %struct.curltime, [6 x i64], [6 x %struct.curltime], i32, i8 }
%struct.pgrs_dir = type { i64, i64, i64, %struct.pgrs_measure }
%struct.pgrs_measure = type { %struct.curltime, i64 }
%struct.UrlState = type { %struct.curltime, i64, i64, %struct.dynbuf, ptr, i64, ptr, i32, i32, i32, ptr, i64, i32, i64, i32, ptr, %struct.digestdata, %struct.digestdata, %struct.auth, %struct.auth, %struct.Curl_async, ptr, %struct.curltime, %struct.Curl_tree, %struct.Curl_llist, [15 x %struct.time_node], ptr, ptr, i64, i64, %struct.Curl_data_priority, ptr, ptr, ptr, %struct.urlpieces, ptr, ptr, ptr, ptr, ptr, i64, %struct.dynbuf, %struct.Curl_llist, [2 x %struct.curl_header], ptr, i32, ptr, ptr, %struct.store_netrc, %struct.dynamically_allocated_data, i8, i8, i8, i8, i32 }
%struct.digestdata = type { ptr, ptr, ptr, ptr, ptr, ptr, i32, i8, i8 }
%struct.auth = type { i64, i64, i64, i8 }
%struct.Curl_async = type { ptr, ptr, ptr, ptr, i32, i32, i8 }
%struct.Curl_tree = type { ptr, ptr, ptr, ptr, %struct.curltime, ptr }
%struct.time_node = type { %struct.Curl_llist_node, %struct.curltime, i32 }
%struct.urlpieces = type { ptr, ptr, ptr, ptr, ptr, ptr, ptr, ptr }
%struct.dynbuf = type { ptr, i64, i64, i64 }
%struct.curl_header = type { ptr, ptr, i64, i64, i32, ptr }
%struct.store_netrc = type { %struct.dynbuf, ptr, i8 }
%struct.dynamically_allocated_data = type { ptr, ptr, ptr, ptr, ptr, ptr, ptr, ptr, ptr, ptr, ptr, ptr, ptr }
%struct.PureInfo = type { i32, i32, i32, i64, i64, i64, i64, i64, ptr, ptr, i64, i32, %struct.ip_quadruple, i32, ptr, i32, %struct.curl_certinfo, i32, i8 }
%struct.ip_quadruple = type { [46 x i8], [46 x i8], i32, i32 }
%struct.curl_certinfo = type { i32, ptr }
%struct.curl_tlssessioninfo = type { i32, ptr }
%struct.Curl_share = type { i32, i32, i32, ptr, ptr, ptr, %struct.cpool, %struct.Curl_hash, ptr, ptr, ptr, i64, i64 }
%struct.Curl_multi = type { i32, i32, i32, %struct.Curl_llist, %struct.Curl_llist, %struct.Curl_llist, %struct.Curl_llist, i64, ptr, ptr, ptr, ptr, %struct.Curl_hash, ptr, ptr, i64, ptr, i64, ptr, i64, %struct.Curl_hash, %struct.Curl_hash, %struct.cpool, i64, i64, i64, ptr, ptr, i64, %struct.curltime, [2 x i32], i32, i32, i8, i8 }
%struct.cpool_bundle = type { %struct.Curl_llist, i64, [1 x ptr] }

; Function Attrs: nounwind uwtable
define internal ptr @cpool_get_instance(ptr noundef %0) #0 {
  %2 = alloca ptr, align 8
  %3 = alloca ptr, align 8
  store ptr %0, ptr %3, align 8, !tbaa !97
  %4 = load ptr, ptr %3, align 8, !tbaa !97
  %5 = icmp ne ptr %4, null
  br i1 %5, label %6, label %47

6:                                                ; preds = %1
  %7 = load ptr, ptr %3, align 8, !tbaa !97
  %8 = getelementptr inbounds nuw %struct.Curl_easy, ptr %7, i32 0, i32 13
  %9 = load ptr, ptr %8, align 8, !tbaa !89
  %10 = icmp ne ptr %9, null
  br i1 %10, label %11, label %24

11:                                               ; preds = %6
  %12 = load ptr, ptr %3, align 8, !tbaa !97
  %13 = getelementptr inbounds nuw %struct.Curl_easy, ptr %12, i32 0, i32 13
  %14 = load ptr, ptr %13, align 8, !tbaa !89
  %15 = getelementptr inbounds nuw %struct.Curl_share, ptr %14, i32 0, i32 1
  %16 = load i32, ptr %15, align 4, !tbaa !91
  %17 = and i32 %16, 32
  %18 = icmp ne i32 %17, 0
  br i1 %18, label %19, label %24

19:                                               ; preds = %11
  %20 = load ptr, ptr %3, align 8, !tbaa !97
  %21 = getelementptr inbounds nuw %struct.Curl_easy, ptr %20, i32 0, i32 13
  %22 = load ptr, ptr %21, align 8, !tbaa !89
  %23 = getelementptr inbounds nuw %struct.Curl_share, ptr %22, i32 0, i32 6
  store ptr %23, ptr %2, align 8
  br label %48

24:                                               ; preds = %11, %6
  %25 = load ptr, ptr %3, align 8, !tbaa !97
  %26 = getelementptr inbounds nuw %struct.Curl_easy, ptr %25, i32 0, i32 12
  %27 = load ptr, ptr %26, align 8, !tbaa !103
  %28 = icmp ne ptr %27, null
  br i1 %28, label %29, label %34

29:                                               ; preds = %24
  %30 = load ptr, ptr %3, align 8, !tbaa !97
  %31 = getelementptr inbounds nuw %struct.Curl_easy, ptr %30, i32 0, i32 12
  %32 = load ptr, ptr %31, align 8, !tbaa !103
  %33 = getelementptr inbounds nuw %struct.Curl_multi, ptr %32, i32 0, i32 22
  store ptr %33, ptr %2, align 8
  br label %48

34:                                               ; preds = %24
  %35 = load ptr, ptr %3, align 8, !tbaa !97
  %36 = getelementptr inbounds nuw %struct.Curl_easy, ptr %35, i32 0, i32 11
  %37 = load ptr, ptr %36, align 8, !tbaa !25
  %38 = icmp ne ptr %37, null
  br i1 %38, label %39, label %44

39:                                               ; preds = %34
  %40 = load ptr, ptr %3, align 8, !tbaa !97
  %41 = getelementptr inbounds nuw %struct.Curl_easy, ptr %40, i32 0, i32 11
  %42 = load ptr, ptr %41, align 8, !tbaa !25
  %43 = getelementptr inbounds nuw %struct.Curl_multi, ptr %42, i32 0, i32 22
  store ptr %43, ptr %2, align 8
  br label %48

44:                                               ; preds = %34
  br label %45

45:                                               ; preds = %44
  br label %46

46:                                               ; preds = %45
  br label %47

47:                                               ; preds = %46, %1
  store ptr null, ptr %2, align 8
  br label %48

48:                                               ; preds = %47, %39, %29, %19
  %49 = load ptr, ptr %2, align 8
  ret ptr %49
}

; Function Attrs: nounwind uwtable
define dso_local zeroext i1 @Curl_cpool_find(ptr noundef %0, ptr noundef %1, i64 noundef %2, ptr noundef %3, ptr noundef %4, ptr noundef %5) #0 {
  %7 = alloca i1, align 1
  %8 = alloca ptr, align 8
  %9 = alloca ptr, align 8
  %10 = alloca i64, align 8
  %11 = alloca ptr, align 8
  %12 = alloca ptr, align 8
  %13 = alloca ptr, align 8
  %14 = alloca ptr, align 8
  %15 = alloca ptr, align 8
  %16 = alloca i8, align 1
  %17 = alloca i32, align 4
  %18 = alloca ptr, align 8
  %19 = alloca ptr, align 8
  store ptr %0, ptr %8, align 8, !tbaa !97
  store ptr %1, ptr %9, align 8, !tbaa !145
  store i64 %2, ptr %10, align 8, !tbaa !14
  store ptr %3, ptr %11, align 8, !tbaa !9
  store ptr %4, ptr %12, align 8, !tbaa !9
  store ptr %5, ptr %13, align 8, !tbaa !9
  call void @llvm.lifetime.start.p0(i64 8, ptr %14) #6
  %20 = load ptr, ptr %8, align 8, !tbaa !97
  %21 = call ptr @cpool_get_instance(ptr noundef %20)
  store ptr %21, ptr %14, align 8, !tbaa !4
  call void @llvm.lifetime.start.p0(i64 8, ptr %15) #6
  call void @llvm.lifetime.start.p0(i64 1, ptr %16) #6
  store i8 0, ptr %16, align 1, !tbaa !125
  br label %22

22:                                               ; preds = %6
  br label %23

23:                                               ; preds = %22
  br label %24

24:                                               ; preds = %23
  br label %25

25:                                               ; preds = %24
  br label %26

26:                                               ; preds = %25
  br label %27

27:                                               ; preds = %26
  %28 = load ptr, ptr %14, align 8, !tbaa !4
  %29 = icmp ne ptr %28, null
  br i1 %29, label %31, label %30

30:                                               ; preds = %27
  store i1 false, ptr %7, align 1
  store i32 1, ptr %17, align 4
  br label %140

31:                                               ; preds = %27
  br label %32

32:                                               ; preds = %31
  %33 = load ptr, ptr %14, align 8, !tbaa !4
  %34 = icmp ne ptr %33, null
  br i1 %34, label %35, label %62

35:                                               ; preds = %32
  %36 = load ptr, ptr %14, align 8, !tbaa !4
  %37 = getelementptr inbounds nuw %struct.cpool, ptr %36, i32 0, i32 8
  %38 = load ptr, ptr %37, align 8, !tbaa !88
  %39 = icmp ne ptr %38, null
  br i1 %39, label %40, label %53

40:                                               ; preds = %35
  %41 = load ptr, ptr %14, align 8, !tbaa !4
  %42 = getelementptr inbounds nuw %struct.cpool, ptr %41, i32 0, i32 8
  %43 = load ptr, ptr %42, align 8, !tbaa !88
  %44 = getelementptr inbounds nuw %struct.Curl_share, ptr %43, i32 0, i32 1
  %45 = load i32, ptr %44, align 4, !tbaa !91
  %46 = and i32 %45, 32
  %47 = icmp ne i32 %46, 0
  br i1 %47, label %48, label %53

48:                                               ; preds = %40
  %49 = load ptr, ptr %14, align 8, !tbaa !4
  %50 = getelementptr inbounds nuw %struct.cpool, ptr %49, i32 0, i32 6
  %51 = load ptr, ptr %50, align 8, !tbaa !16
  %52 = call i32 @Curl_share_lock(ptr noundef %51, i32 noundef 5, i32 noundef 2)
  br label %53

53:                                               ; preds = %48, %40, %35
  br label %54

54:                                               ; preds = %53
  br label %55

55:                                               ; preds = %54
  br label %56

56:                                               ; preds = %55
  %57 = load ptr, ptr %14, align 8, !tbaa !4
  %58 = getelementptr inbounds nuw %struct.cpool, ptr %57, i32 0, i32 10
  %59 = load i8, ptr %58, align 8
  %60 = and i8 %59, -2
  %61 = or i8 %60, 1
  store i8 %61, ptr %58, align 8
  br label %62

62:                                               ; preds = %56, %32
  br label %63

63:                                               ; preds = %62
  br label %64

64:                                               ; preds = %63
  %65 = load ptr, ptr %14, align 8, !tbaa !4
  %66 = getelementptr inbounds nuw %struct.cpool, ptr %65, i32 0, i32 0
  %67 = load ptr, ptr %9, align 8, !tbaa !145
  %68 = load i64, ptr %10, align 8, !tbaa !14
  %69 = call ptr @Curl_hash_pick(ptr noundef %66, ptr noundef %67, i64 noundef %68)
  store ptr %69, ptr %15, align 8, !tbaa !107
  %70 = load ptr, ptr %15, align 8, !tbaa !107
  %71 = icmp ne ptr %70, null
  br i1 %71, label %72, label %94

72:                                               ; preds = %64
  call void @llvm.lifetime.start.p0(i64 8, ptr %18) #6
  %73 = load ptr, ptr %15, align 8, !tbaa !107
  %74 = getelementptr inbounds nuw %struct.cpool_bundle, ptr %73, i32 0, i32 0
  %75 = call ptr @Curl_llist_head(ptr noundef %74)
  store ptr %75, ptr %18, align 8, !tbaa !123
  br label %76

76:                                               ; preds = %92, %72
  %77 = load ptr, ptr %18, align 8, !tbaa !123
  %78 = icmp ne ptr %77, null
  br i1 %78, label %79, label %93

79:                                               ; preds = %76
  call void @llvm.lifetime.start.p0(i64 8, ptr %19) #6
  %80 = load ptr, ptr %18, align 8, !tbaa !123
  %81 = call ptr @Curl_node_elem(ptr noundef %80)
  store ptr %81, ptr %19, align 8, !tbaa !93
  %82 = load ptr, ptr %18, align 8, !tbaa !123
  %83 = call ptr @Curl_node_next(ptr noundef %82)
  store ptr %83, ptr %18, align 8, !tbaa !123
  %84 = load ptr, ptr %11, align 8, !tbaa !9
  %85 = load ptr, ptr %19, align 8, !tbaa !93
  %86 = load ptr, ptr %13, align 8, !tbaa !9
  %87 = call zeroext i1 %84(ptr noundef %85, ptr noundef %86)
  br i1 %87, label %88, label %89

88:                                               ; preds = %79
  store i8 1, ptr %16, align 1, !tbaa !125
  store i32 11, ptr %17, align 4
  br label %90

89:                                               ; preds = %79
  store i32 0, ptr %17, align 4
  br label %90

90:                                               ; preds = %89, %88
  call void @llvm.lifetime.end.p0(i64 8, ptr %19) #6
  %91 = load i32, ptr %17, align 4
  switch i32 %91, label %142 [
    i32 0, label %92
    i32 11, label %93
  ]

92:                                               ; preds = %90
  br label %76, !llvm.loop !146

93:                                               ; preds = %90, %76
  call void @llvm.lifetime.end.p0(i64 8, ptr %18) #6
  br label %94

94:                                               ; preds = %93, %64
  %95 = load ptr, ptr %12, align 8, !tbaa !9
  %96 = icmp ne ptr %95, null
  br i1 %96, label %97, label %104

97:                                               ; preds = %94
  %98 = load ptr, ptr %12, align 8, !tbaa !9
  %99 = load i8, ptr %16, align 1, !tbaa !125, !range !127, !noundef !128
  %100 = trunc i8 %99 to i1
  %101 = load ptr, ptr %13, align 8, !tbaa !9
  %102 = call zeroext i1 %98(i1 noundef zeroext %100, ptr noundef %101)
  %103 = zext i1 %102 to i8
  store i8 %103, ptr %16, align 1, !tbaa !125
  br label %104

104:                                              ; preds = %97, %94
  br label %105

105:                                              ; preds = %104
  %106 = load ptr, ptr %14, align 8, !tbaa !4
  %107 = icmp ne ptr %106, null
  br i1 %107, label %108, label %135

108:                                              ; preds = %105
  br label %109

109:                                              ; preds = %108
  br label %110

110:                                              ; preds = %109
  br label %111

111:                                              ; preds = %110
  %112 = load ptr, ptr %14, align 8, !tbaa !4
  %113 = getelementptr inbounds nuw %struct.cpool, ptr %112, i32 0, i32 10
  %114 = load i8, ptr %113, align 8
  %115 = and i8 %114, -2
  %116 = or i8 %115, 0
  store i8 %116, ptr %113, align 8
  %117 = load ptr, ptr %14, align 8, !tbaa !4
  %118 = getelementptr inbounds nuw %struct.cpool, ptr %117, i32 0, i32 8
  %119 = load ptr, ptr %118, align 8, !tbaa !88
  %120 = icmp ne ptr %119, null
  br i1 %120, label %121, label %134

121:                                              ; preds = %111
  %122 = load ptr, ptr %14, align 8, !tbaa !4
  %123 = getelementptr inbounds nuw %struct.cpool, ptr %122, i32 0, i32 8
  %124 = load ptr, ptr %123, align 8, !tbaa !88
  %125 = getelementptr inbounds nuw %struct.Curl_share, ptr %124, i32 0, i32 1
  %126 = load i32, ptr %125, align 4, !tbaa !91
  %127 = and i32 %126, 32
  %128 = icmp ne i32 %127, 0
  br i1 %128, label %129, label %134

129:                                              ; preds = %121
  %130 = load ptr, ptr %14, align 8, !tbaa !4
  %131 = getelementptr inbounds nuw %struct.cpool, ptr %130, i32 0, i32 6
  %132 = load ptr, ptr %131, align 8, !tbaa !16
  %133 = call i32 @Curl_share_unlock(ptr noundef %132, i32 noundef 5)
  br label %134

134:                                              ; preds = %129, %121, %111
  br label %135

135:                                              ; preds = %134, %105
  br label %136

136:                                              ; preds = %135
  br label %137

137:                                              ; preds = %136
  %138 = load i8, ptr %16, align 1, !tbaa !125, !range !127, !noundef !128
  %139 = trunc i8 %138 to i1
  store i1 %139, ptr %7, align 1
  store i32 1, ptr %17, align 4
  br label %140

140:                                              ; preds = %137, %30
  call void @llvm.lifetime.end.p0(i64 1, ptr %16) #6
  call void @llvm.lifetime.end.p0(i64 8, ptr %15) #6
  call void @llvm.lifetime.end.p0(i64 8, ptr %14) #6
  %141 = load i1, ptr %7, align 1
  ret i1 %141

142:                                              ; preds = %90
  unreachable
}