; Function Attrs: nounwind uwtable
define dso_local zeroext i1 @Curl_cpool_find(ptr noundef readonly %0, ptr noundef %1, i64 noundef %2, ptr noundef readonly captures(none) %3, ptr noundef readonly %4, ptr noundef %5) local_unnamed_addr #0 {
  %.not.i = icmp eq ptr %0, null
  br i1 %.not.i, label %cpool_get_instance.exit, label %7

7:                                                ; preds = %6
  %8 = getelementptr inbounds nuw i8, ptr %0, i64 224
  %9 = load ptr, ptr %8, align 8, !tbaa !83
  %.not13.i = icmp eq ptr %9, null
  br i1 %.not13.i, label %16, label %10

10:                                               ; preds = %7
  %11 = getelementptr inbounds nuw i8, ptr %9, i64 4
  %12 = load i32, ptr %11, align 4, !tbaa !90
  %13 = and i32 %12, 32
  %.not14.i = icmp eq i32 %13, 0
  br i1 %.not14.i, label %16, label %14

14:                                               ; preds = %10
  %15 = getelementptr inbounds nuw i8, ptr %9, i64 40
  br label %25

16:                                               ; preds = %10, %7
  %17 = getelementptr inbounds nuw i8, ptr %0, i64 216
  %18 = load ptr, ptr %17, align 8, !tbaa !122
  %.not15.i = icmp eq ptr %18, null
  br i1 %.not15.i, label %21, label %19

19:                                               ; preds = %16
  %20 = getelementptr inbounds nuw i8, ptr %18, i64 384
  br label %25

21:                                               ; preds = %16
  %22 = getelementptr inbounds nuw i8, ptr %0, i64 208
  %23 = load ptr, ptr %22, align 8, !tbaa !21
  %.not16.i = icmp eq ptr %23, null
  %24 = getelementptr inbounds nuw i8, ptr %23, i64 384
  br i1 %.not16.i, label %cpool_get_instance.exit, label %25

25:                                               ; preds = %14, %19, %21
  %.0.i.ph = phi ptr [ %24, %21 ], [ %20, %19 ], [ %15, %14 ]
  %26 = getelementptr inbounds nuw i8, ptr %.0.i.ph, i64 136
  %27 = load ptr, ptr %26, align 8, !tbaa !82
  %.not37 = icmp eq ptr %27, null
  br i1 %.not37, label %36, label %28

28:                                               ; preds = %25
  %29 = getelementptr inbounds nuw i8, ptr %27, i64 4
  %30 = load i32, ptr %29, align 4, !tbaa !90
  %31 = and i32 %30, 32
  %.not38 = icmp eq i32 %31, 0
  br i1 %.not38, label %36, label %32

32:                                               ; preds = %28
  %33 = getelementptr inbounds nuw i8, ptr %.0.i.ph, i64 120
  %34 = load ptr, ptr %33, align 8, !tbaa !4
  %35 = tail call i32 @Curl_share_lock(ptr noundef %34, i32 noundef 5, i32 noundef 2) #7
  br label %36

36:                                               ; preds = %25, %28, %32
  %37 = getelementptr inbounds nuw i8, ptr %.0.i.ph, i64 152
  %38 = load i8, ptr %37, align 8
  %39 = or i8 %38, 1
  store i8 %39, ptr %37, align 8
  %40 = tail call ptr @Curl_hash_pick(ptr noundef nonnull %.0.i.ph, ptr noundef %1, i64 noundef %2) #7
  %.not39 = icmp eq ptr %40, null
  br i1 %.not39, label %.loopexit, label %41

41:                                               ; preds = %36
  %42 = tail call ptr @Curl_llist_head(ptr noundef nonnull %40) #7
  br label %43

43:                                               ; preds = %44, %41
  %.029 = phi ptr [ %42, %41 ], [ %46, %44 ]
  %.not40 = icmp eq ptr %.029, null
  br i1 %.not40, label %.loopexit, label %44

44:                                               ; preds = %43
  %45 = tail call ptr @Curl_node_elem(ptr noundef nonnull %.029) #7
  %46 = tail call ptr @Curl_node_next(ptr noundef nonnull %.029) #7
  %47 = tail call zeroext i1 %3(ptr noundef %45, ptr noundef %5) #7
  br i1 %47, label %.loopexit, label %43

.loopexit:                                        ; preds = %44, %43, %36
  %.031 = phi i8 [ 0, %36 ], [ 0, %43 ], [ 1, %44 ]
  %.not41 = icmp eq ptr %4, null
  br i1 %.not41, label %52, label %48

48:                                               ; preds = %.loopexit
  %49 = trunc nuw i8 %.031 to i1
  %50 = tail call zeroext i1 %4(i1 noundef zeroext %49, ptr noundef %5) #7
  %51 = zext i1 %50 to i8
  br label %52

52:                                               ; preds = %48, %.loopexit
  %.4 = phi i8 [ %51, %48 ], [ %.031, %.loopexit ]
  %53 = load i8, ptr %37, align 8
  %54 = and i8 %53, -2
  store i8 %54, ptr %37, align 8
  %55 = load ptr, ptr %26, align 8, !tbaa !82
  %.not42 = icmp eq ptr %55, null
  br i1 %.not42, label %64, label %56

56:                                               ; preds = %52
  %57 = getelementptr inbounds nuw i8, ptr %55, i64 4
  %58 = load i32, ptr %57, align 4, !tbaa !90
  %59 = and i32 %58, 32
  %.not43 = icmp eq i32 %59, 0
  br i1 %.not43, label %64, label %60

60:                                               ; preds = %56
  %61 = getelementptr inbounds nuw i8, ptr %.0.i.ph, i64 120
  %62 = load ptr, ptr %61, align 8, !tbaa !4
  %63 = tail call i32 @Curl_share_unlock(ptr noundef %62, i32 noundef 5) #7
  br label %64

64:                                               ; preds = %52, %56, %60
  %65 = trunc nuw i8 %.4 to i1
  br label %cpool_get_instance.exit

cpool_get_instance.exit:                          ; preds = %21, %6, %64
  %.0 = phi i1 [ %65, %64 ], [ false, %6 ], [ false, %21 ]
  ret i1 %.0
}